; Function Attrs: mustprogress nounwind uwtable
define hidden noundef zeroext i1 @_ZN8G1Policy39force_concurrent_start_if_outside_cycleEN7GCCause5CauseE(ptr nocapture noundef nonnull readonly align 8 dereferenceable(552) %0, i32 noundef %1) local_unnamed_addr #1 align 2 {
  %3 = getelementptr inbounds i8, ptr %0, i64 240
  %4 = load ptr, ptr %3, align 8
  %5 = getelementptr inbounds i8, ptr %4, i64 1320
  %6 = load ptr, ptr %5, align 8
  %7 = load ptr, ptr %6, align 8
  %8 = getelementptr inbounds i8, ptr %7, i64 944
  %9 = load volatile i32, ptr %8, align 8
  %.not = icmp eq i32 %9, 0
  %10 = load volatile ptr, ptr getelementptr inbounds (i8, ptr @_ZN16LogTagSetMappingILN6LogTag4typeE49ELS1_40ELS1_0ELS1_0ELS1_0ELS1_0EE7_tagsetE, i64 56), align 8
  %.not4 = icmp eq ptr %10, null
  br i1 %.not, label %11, label %17

11:                                               ; preds = %2
  br i1 %.not4, label %14, label %12

12:                                               ; preds = %11
  %13 = tail call noundef ptr @_ZN7GCCause9to_stringENS_5CauseE(i32 noundef %1) #18
  tail call void (ptr, ...) @_ZN7LogImplILN6LogTag4typeE49ELS1_40ELS1_0ELS1_0ELS1_0ELS1_0EE5writeILN8LogLevel4typeE2EEEvPKcz(ptr noundef nonnull @.str.31, ptr noundef %13)
  %.pre = load ptr, ptr %3, align 8
  br label %14

14:                                               ; preds = %11, %12
  %15 = phi ptr [ %4, %11 ], [ %.pre, %12 ]
  %16 = getelementptr inbounds i8, ptr %15, i64 971
  store volatile i8 1, ptr %16, align 1
  br label %20

17:                                               ; preds = %2
  br i1 %.not4, label %20, label %18

18:                                               ; preds = %17
  %19 = tail call noundef ptr @_ZN7GCCause9to_stringENS_5CauseE(i32 noundef %1) #18
  tail call void (ptr, ...) @_ZN7LogImplILN6LogTag4typeE49ELS1_40ELS1_0ELS1_0ELS1_0ELS1_0EE5writeILN8LogLevel4typeE2EEEvPKcz(ptr noundef nonnull @.str.32, ptr noundef %19)
  br label %20

20:                                               ; preds = %18, %17, %14
  ret i1 %.not
}